target datalayout = "e-m:e-p270:32:32-p271:32:32-p272:64:64-i64:64-i128:128-f80:128-n8:16:32:64-S128"
target triple = "x86_64-pc-linux-gnu"

%"class.Imf_3_4::Attribute" = type { ptr }
%"class.Imath_3_2::Matrix33" = type { [3 x [3 x float]] }
%"class.Imf_3_4::TypedAttribute.18" = type <{ %"class.Imf_3_4::Attribute", %"class.Imath_3_2::Matrix33", [4 x i8] }>

@_ZTISt9exception = external constant ptr
@_ZN12_GLOBAL__N_112errorMessageE = internal global [1024 x i8] zeroinitializer, align 16
@_ZTIN7Imf_3_49AttributeE = external constant ptr
@.str = private unnamed_addr constant [27 x i8] c"Unexpected attribute type.\00", align 1
@_ZTIN7Iex_3_47TypeExcE = external constant ptr
@_ZTIN7Imf_3_414TypedAttributeIN9Imath_3_28Matrix33IfEEEE = external constant ptr

; Function Attrs: noinline noreturn nounwind uwtable
define linkonce_odr hidden void @__clang_call_terminate(ptr noundef %0) #11 comdat {
  %2 = call ptr @__cxa_begin_catch(ptr %0) #3
  call void @_ZSt9terminatev() #18
  unreachable
}

; Function Attrs: mustprogress nounwind uwtable
define internal void @_ZN12_GLOBAL__N_115setErrorMessageERKSt9exception(ptr noundef nonnull align 8 dereferenceable(8) %0) #4 {
  %2 = alloca ptr, align 8
  store ptr %0, ptr %2, align 8, !tbaa !23
  %3 = load ptr, ptr %2, align 8, !tbaa !23
  %4 = load ptr, ptr %3, align 8, !tbaa !30
  %5 = getelementptr inbounds ptr, ptr %4, i64 2
  %6 = load ptr, ptr %5, align 8
  %7 = call noundef ptr %6(ptr noundef nonnull align 8 dereferenceable(8) %3) #3
  %8 = call ptr @strncpy(ptr noundef @_ZN12_GLOBAL__N_112errorMessageE, ptr noundef %7, i64 noundef 1023) #3
  store i8 0, ptr getelementptr inbounds ([1024 x i8], ptr @_ZN12_GLOBAL__N_112errorMessageE, i64 0, i64 1023), align 1, !tbaa !32
  ret void
}

; Function Attrs: inlinehint mustprogress nounwind uwtable
define linkonce_odr hidden noundef ptr @_ZNK9Imath_3_28Matrix33IfEixEi(ptr noundef nonnull align 4 dereferenceable(36) %0, i32 noundef %1) #6 comdat align 2 {
  %3 = alloca ptr, align 8
  %4 = alloca i32, align 4
  store ptr %0, ptr %3, align 8, !tbaa !113
  store i32 %1, ptr %4, align 4, !tbaa !16
  %5 = load ptr, ptr %3, align 8
  %6 = getelementptr inbounds nuw %"class.Imath_3_2::Matrix33", ptr %5, i32 0, i32 0
  %7 = load i32, ptr %4, align 4, !tbaa !16
  %8 = sext i32 %7 to i64
  %9 = getelementptr inbounds [3 x [3 x float]], ptr %6, i64 0, i64 %8
  %10 = getelementptr inbounds [3 x float], ptr %9, i64 0, i64 0
  ret ptr %10
}

; Function Attrs: inlinehint mustprogress nounwind uwtable
define available_externally noundef nonnull align 4 dereferenceable(36) ptr @_ZNK7Imf_3_414TypedAttributeIN9Imath_3_28Matrix33IfEEE5valueEv(ptr noundef nonnull align 8 dereferenceable(44) %0) #6 align 2 {
  %2 = alloca ptr, align 8
  store ptr %0, ptr %2, align 8, !tbaa !115
  %3 = load ptr, ptr %2, align 8
  %4 = getelementptr inbounds nuw %"class.Imf_3_4::TypedAttribute.18", ptr %3, i32 0, i32 1
  ret ptr %4
}

; Function Attrs: mustprogress uwtable
define linkonce_odr noundef nonnull align 8 dereferenceable(44) ptr @_ZNK7Imf_3_46Header14typedAttributeINS_14TypedAttributeIN9Imath_3_28Matrix33IfEEEEEERKT_PKc(ptr noundef nonnull align 8 dereferenceable(49) %0, ptr noundef %1) #7 comdat align 2 personality ptr @__gxx_personality_v0 {
  %3 = alloca ptr, align 8
  %4 = alloca ptr, align 8
  %5 = alloca ptr, align 8
  %6 = alloca ptr, align 8
  %7 = alloca ptr, align 8
  %8 = alloca i32, align 4
  store ptr %0, ptr %3, align 8, !tbaa !59
  store ptr %1, ptr %4, align 8, !tbaa !53
  %9 = load ptr, ptr %3, align 8
  call void @llvm.lifetime.start.p0(i64 8, ptr %5) #3
  %10 = load ptr, ptr %4, align 8, !tbaa !53
  %11 = call noundef nonnull align 8 dereferenceable(8) ptr @_ZNK7Imf_3_46HeaderixEPKc(ptr noundef nonnull align 8 dereferenceable(49) %9, ptr noundef %10)
  store ptr %11, ptr %5, align 8, !tbaa !61
  call void @llvm.lifetime.start.p0(i64 8, ptr %6) #3
  %12 = load ptr, ptr %5, align 8, !tbaa !61
  %13 = icmp eq ptr %12, null
  br i1 %13, label %16, label %14

14:                                               ; preds = %2
  %15 = call ptr @__dynamic_cast(ptr %12, ptr @_ZTIN7Imf_3_49AttributeE, ptr @_ZTIN7Imf_3_414TypedAttributeIN9Imath_3_28Matrix33IfEEEE, i64 0) #3
  br label %17

16:                                               ; preds = %2
  br label %17

17:                                               ; preds = %16, %14
  %18 = phi ptr [ %15, %14 ], [ null, %16 ]
  store ptr %18, ptr %6, align 8, !tbaa !115
  %19 = load ptr, ptr %6, align 8, !tbaa !115
  %20 = icmp eq ptr %19, null
  br i1 %20, label %21, label %28

21:                                               ; preds = %17
  %22 = call ptr @__cxa_allocate_exception(i64 72) #3
  invoke void @_ZN7Iex_3_47TypeExcC1EPKc(ptr noundef nonnull align 8 dereferenceable(72) %22, ptr noundef @.str)
          to label %23 unwind label %24

23:                                               ; preds = %21
  call void @__cxa_throw(ptr %22, ptr @_ZTIN7Iex_3_47TypeExcE, ptr @_ZN7Iex_3_47TypeExcD1Ev) #21
  unreachable

24:                                               ; preds = %21
  %25 = landingpad { ptr, i32 }
          cleanup
  %26 = extractvalue { ptr, i32 } %25, 0
  store ptr %26, ptr %7, align 8
  %27 = extractvalue { ptr, i32 } %25, 1
  store i32 %27, ptr %8, align 4
  call void @__cxa_free_exception(ptr %22) #3
  call void @llvm.lifetime.end.p0(i64 8, ptr %6) #3
  call void @llvm.lifetime.end.p0(i64 8, ptr %5) #3
  br label %30

28:                                               ; preds = %17
  %29 = load ptr, ptr %6, align 8, !tbaa !115
  call void @llvm.lifetime.end.p0(i64 8, ptr %6) #3
  call void @llvm.lifetime.end.p0(i64 8, ptr %5) #3
  ret ptr %29

30:                                               ; preds = %24
  %31 = load ptr, ptr %7, align 8
  %32 = load i32, ptr %8, align 4
  %33 = insertvalue { ptr, i32 } poison, ptr %31, 0
  %34 = insertvalue { ptr, i32 } %33, i32 %32, 1
  resume { ptr, i32 } %34
}

; Function Attrs: inlinehint mustprogress nounwind uwtable
define internal noundef ptr @_ZN12_GLOBAL__N_16headerEPK9ImfHeader(ptr noundef %0) #6 {
  %2 = alloca ptr, align 8
  store ptr %0, ptr %2, align 8, !tbaa !33
  %3 = load ptr, ptr %2, align 8, !tbaa !33
  ret ptr %3
}

; Function Attrs: mustprogress uwtable
define i32 @ImfHeaderM33fAttribute(ptr noundef %0, ptr noundef %1, ptr noundef %2) #7 personality ptr @__gxx_personality_v0 {
  %4 = alloca i32, align 4
  %5 = alloca ptr, align 8
  %6 = alloca ptr, align 8
  %7 = alloca ptr, align 8
  %8 = alloca ptr, align 8
  %9 = alloca ptr, align 8
  %10 = alloca i32, align 4
  %11 = alloca ptr, align 8
  store ptr %0, ptr %5, align 8, !tbaa !33
  store ptr %1, ptr %6, align 8, !tbaa !53
  store ptr %2, ptr %7, align 8, !tbaa !18
  call void @llvm.lifetime.start.p0(i64 8, ptr %8) #3
  %12 = load ptr, ptr %5, align 8, !tbaa !33
  %13 = invoke noundef ptr @_ZN12_GLOBAL__N_16headerEPK9ImfHeader(ptr noundef %12)
          to label %14 unwind label %83

14:                                               ; preds = %3
  %15 = load ptr, ptr %6, align 8, !tbaa !53
  %16 = invoke noundef nonnull align 8 dereferenceable(44) ptr @_ZNK7Imf_3_46Header14typedAttributeINS_14TypedAttributeIN9Imath_3_28Matrix33IfEEEEEERKT_PKc(ptr noundef nonnull align 8 dereferenceable(49) %13, ptr noundef %15)
          to label %17 unwind label %83

17:                                               ; preds = %14
  %18 = invoke noundef nonnull align 4 dereferenceable(36) ptr @_ZNK7Imf_3_414TypedAttributeIN9Imath_3_28Matrix33IfEEE5valueEv(ptr noundef nonnull align 8 dereferenceable(44) %16)
          to label %19 unwind label %83

19:                                               ; preds = %17
  store ptr %18, ptr %8, align 8, !tbaa !113
  %20 = load ptr, ptr %8, align 8, !tbaa !113
  %21 = call noundef ptr @_ZNK9Imath_3_28Matrix33IfEixEi(ptr noundef nonnull align 4 dereferenceable(36) %20, i32 noundef 0) #3
  %22 = getelementptr inbounds float, ptr %21, i64 0
  %23 = load float, ptr %22, align 4, !tbaa !3
  %24 = load ptr, ptr %7, align 8, !tbaa !18
  %25 = getelementptr inbounds [3 x float], ptr %24, i64 0
  %26 = getelementptr inbounds [3 x float], ptr %25, i64 0, i64 0
  store float %23, ptr %26, align 4, !tbaa !3
  %27 = load ptr, ptr %8, align 8, !tbaa !113
  %28 = call noundef ptr @_ZNK9Imath_3_28Matrix33IfEixEi(ptr noundef nonnull align 4 dereferenceable(36) %27, i32 noundef 0) #3
  %29 = getelementptr inbounds float, ptr %28, i64 1
  %30 = load float, ptr %29, align 4, !tbaa !3
  %31 = load ptr, ptr %7, align 8, !tbaa !18
  %32 = getelementptr inbounds [3 x float], ptr %31, i64 0
  %33 = getelementptr inbounds [3 x float], ptr %32, i64 0, i64 1
  store float %30, ptr %33, align 4, !tbaa !3
  %34 = load ptr, ptr %8, align 8, !tbaa !113
  %35 = call noundef ptr @_ZNK9Imath_3_28Matrix33IfEixEi(ptr noundef nonnull align 4 dereferenceable(36) %34, i32 noundef 0) #3
  %36 = getelementptr inbounds float, ptr %35, i64 2
  %37 = load float, ptr %36, align 4, !tbaa !3
  %38 = load ptr, ptr %7, align 8, !tbaa !18
  %39 = getelementptr inbounds [3 x float], ptr %38, i64 0
  %40 = getelementptr inbounds [3 x float], ptr %39, i64 0, i64 2
  store float %37, ptr %40, align 4, !tbaa !3
  %41 = load ptr, ptr %8, align 8, !tbaa !113
  %42 = call noundef ptr @_ZNK9Imath_3_28Matrix33IfEixEi(ptr noundef nonnull align 4 dereferenceable(36) %41, i32 noundef 1) #3
  %43 = getelementptr inbounds float, ptr %42, i64 0
  %44 = load float, ptr %43, align 4, !tbaa !3
  %45 = load ptr, ptr %7, align 8, !tbaa !18
  %46 = getelementptr inbounds [3 x float], ptr %45, i64 1
  %47 = getelementptr inbounds [3 x float], ptr %46, i64 0, i64 0
  store float %44, ptr %47, align 4, !tbaa !3
  %48 = load ptr, ptr %8, align 8, !tbaa !113
  %49 = call noundef ptr @_ZNK9Imath_3_28Matrix33IfEixEi(ptr noundef nonnull align 4 dereferenceable(36) %48, i32 noundef 1) #3
  %50 = getelementptr inbounds float, ptr %49, i64 1
  %51 = load float, ptr %50, align 4, !tbaa !3
  %52 = load ptr, ptr %7, align 8, !tbaa !18
  %53 = getelementptr inbounds [3 x float], ptr %52, i64 1
  %54 = getelementptr inbounds [3 x float], ptr %53, i64 0, i64 1
  store float %51, ptr %54, align 4, !tbaa !3
  %55 = load ptr, ptr %8, align 8, !tbaa !113
  %56 = call noundef ptr @_ZNK9Imath_3_28Matrix33IfEixEi(ptr noundef nonnull align 4 dereferenceable(36) %55, i32 noundef 1) #3
  %57 = getelementptr inbounds float, ptr %56, i64 2
  %58 = load float, ptr %57, align 4, !tbaa !3
  %59 = load ptr, ptr %7, align 8, !tbaa !18
  %60 = getelementptr inbounds [3 x float], ptr %59, i64 1
  %61 = getelementptr inbounds [3 x float], ptr %60, i64 0, i64 2
  store float %58, ptr %61, align 4, !tbaa !3
  %62 = load ptr, ptr %8, align 8, !tbaa !113
  %63 = call noundef ptr @_ZNK9Imath_3_28Matrix33IfEixEi(ptr noundef nonnull align 4 dereferenceable(36) %62, i32 noundef 2) #3
  %64 = getelementptr inbounds float, ptr %63, i64 0
  %65 = load float, ptr %64, align 4, !tbaa !3
  %66 = load ptr, ptr %7, align 8, !tbaa !18
  %67 = getelementptr inbounds [3 x float], ptr %66, i64 2
  %68 = getelementptr inbounds [3 x float], ptr %67, i64 0, i64 0
  store float %65, ptr %68, align 4, !tbaa !3
  %69 = load ptr, ptr %8, align 8, !tbaa !113
  %70 = call noundef ptr @_ZNK9Imath_3_28Matrix33IfEixEi(ptr noundef nonnull align 4 dereferenceable(36) %69, i32 noundef 2) #3
  %71 = getelementptr inbounds float, ptr %70, i64 1
  %72 = load float, ptr %71, align 4, !tbaa !3
  %73 = load ptr, ptr %7, align 8, !tbaa !18
  %74 = getelementptr inbounds [3 x float], ptr %73, i64 2
  %75 = getelementptr inbounds [3 x float], ptr %74, i64 0, i64 1
  store float %72, ptr %75, align 4, !tbaa !3
  %76 = load ptr, ptr %8, align 8, !tbaa !113
  %77 = call noundef ptr @_ZNK9Imath_3_28Matrix33IfEixEi(ptr noundef nonnull align 4 dereferenceable(36) %76, i32 noundef 2) #3
  %78 = getelementptr inbounds float, ptr %77, i64 2
  %79 = load float, ptr %78, align 4, !tbaa !3
  %80 = load ptr, ptr %7, align 8, !tbaa !18
  %81 = getelementptr inbounds [3 x float], ptr %80, i64 2
  %82 = getelementptr inbounds [3 x float], ptr %81, i64 0, i64 2
  store float %79, ptr %82, align 4, !tbaa !3
  store i32 1, ptr %4, align 4
  call void @llvm.lifetime.end.p0(i64 8, ptr %8) #3
  br label %102

83:                                               ; preds = %17, %14, %3
  %84 = landingpad { ptr, i32 }
          cleanup
          catch ptr @_ZTISt9exception
  %85 = extractvalue { ptr, i32 } %84, 0
  store ptr %85, ptr %9, align 8
  %86 = extractvalue { ptr, i32 } %84, 1
  store i32 %86, ptr %10, align 4
  call void @llvm.lifetime.end.p0(i64 8, ptr %8) #3
  br label %87

87:                                               ; preds = %83
  %88 = load i32, ptr %10, align 4
  %89 = call i32 @llvm.eh.typeid.for.p0(ptr @_ZTISt9exception) #3
  %90 = icmp eq i32 %88, %89
  br i1 %90, label %91, label %104

91:                                               ; preds = %87
  call void @llvm.lifetime.start.p0(i64 8, ptr %11) #3
  %92 = load ptr, ptr %9, align 8
  %93 = call ptr @__cxa_begin_catch(ptr %92) #3
  store ptr %93, ptr %11, align 8
  %94 = load ptr, ptr %11, align 8, !tbaa !23
  invoke void @_ZN12_GLOBAL__N_115setErrorMessageERKSt9exception(ptr noundef nonnull align 8 dereferenceable(8) %94)
          to label %95 unwind label %96

95:                                               ; preds = %91
  store i32 0, ptr %4, align 4
  call void @__cxa_end_catch()
  call void @llvm.lifetime.end.p0(i64 8, ptr %11) #3
  br label %102

96:                                               ; preds = %91
  %97 = landingpad { ptr, i32 }
          cleanup
  %98 = extractvalue { ptr, i32 } %97, 0
  store ptr %98, ptr %9, align 8
  %99 = extractvalue { ptr, i32 } %97, 1
  store i32 %99, ptr %10, align 4
  invoke void @__cxa_end_catch()
          to label %100 unwind label %109

100:                                              ; preds = %96
  call void @llvm.lifetime.end.p0(i64 8, ptr %11) #3
  br label %104

101:                                              ; No predecessors!
  unreachable

102:                                              ; preds = %95, %19
  %103 = load i32, ptr %4, align 4
  ret i32 %103

104:                                              ; preds = %100, %87
  %105 = load ptr, ptr %9, align 8
  %106 = load i32, ptr %10, align 4
  %107 = insertvalue { ptr, i32 } poison, ptr %105, 0
  %108 = insertvalue { ptr, i32 } %107, i32 %106, 1
  resume { ptr, i32 } %108

109:                                              ; preds = %96
  %110 = landingpad { ptr, i32 }
          catch ptr null
  %111 = extractvalue { ptr, i32 } %110, 0
  call void @__clang_call_terminate(ptr %111) #18
  unreachable
}