; Function Attrs: mustprogress uwtable
define range(i32 0, 2) i32 @ImfHeaderM33fAttribute(ptr noundef nonnull %0, ptr noundef %1, ptr noundef writeonly captures(none) %2) local_unnamed_addr #8 personality ptr @__gxx_personality_v0 {
  %4 = invoke noundef nonnull align 8 dereferenceable(8) ptr @_ZNK7Imf_3_46HeaderixEPKc(ptr noundef nonnull align 8 dereferenceable(49) %0, ptr noundef %1)
          to label %.noexc unwind label %38

.noexc:                                           ; preds = %3
  %5 = tail call ptr @__dynamic_cast(ptr nonnull %4, ptr nonnull @_ZTIN7Imf_3_49AttributeE, ptr nonnull @_ZTIN7Imf_3_414TypedAttributeIN9Imath_3_28Matrix33IfEEEE, i64 0) #24
  %6 = icmp eq ptr %5, null
  br i1 %6, label %7, label %_ZNK7Imf_3_46Header14typedAttributeINS_14TypedAttributeIN9Imath_3_28Matrix33IfEEEEEERKT_PKc.exit

7:                                                ; preds = %.noexc
  %8 = tail call ptr @__cxa_allocate_exception(i64 72) #24
  invoke void @_ZN7Iex_3_47TypeExcC1EPKc(ptr noundef nonnull align 8 dereferenceable(72) %8, ptr noundef nonnull @.str)
          to label %9 unwind label %10

9:                                                ; preds = %7
  invoke void @__cxa_throw(ptr nonnull %8, ptr nonnull @_ZTIN7Iex_3_47TypeExcE, ptr nonnull @_ZN7Iex_3_47TypeExcD1Ev) #26
          to label %.noexc25 unwind label %38

.noexc25:                                         ; preds = %9
  unreachable

10:                                               ; preds = %7
  %11 = landingpad { ptr, i32 }
          cleanup
          catch ptr @_ZTISt9exception
  tail call void @__cxa_free_exception(ptr nonnull %8) #24
  br label %.body

_ZNK7Imf_3_46Header14typedAttributeINS_14TypedAttributeIN9Imath_3_28Matrix33IfEEEEEERKT_PKc.exit: ; preds = %.noexc
  %12 = getelementptr inbounds nuw i8, ptr %5, i64 8
  %13 = load float, ptr %12, align 4, !tbaa !8
  store float %13, ptr %2, align 4, !tbaa !8
  %14 = getelementptr inbounds nuw i8, ptr %5, i64 12
  %15 = load float, ptr %14, align 4, !tbaa !8
  %16 = getelementptr inbounds nuw i8, ptr %2, i64 4
  store float %15, ptr %16, align 4, !tbaa !8
  %17 = getelementptr inbounds nuw i8, ptr %5, i64 16
  %18 = load float, ptr %17, align 4, !tbaa !8
  %19 = getelementptr inbounds nuw i8, ptr %2, i64 8
  store float %18, ptr %19, align 4, !tbaa !8
  %20 = getelementptr inbounds nuw i8, ptr %5, i64 20
  %21 = load float, ptr %20, align 4, !tbaa !8
  %22 = getelementptr inbounds nuw i8, ptr %2, i64 12
  store float %21, ptr %22, align 4, !tbaa !8
  %23 = getelementptr inbounds nuw i8, ptr %5, i64 24
  %24 = load float, ptr %23, align 4, !tbaa !8
  %25 = getelementptr inbounds nuw i8, ptr %2, i64 16
  store float %24, ptr %25, align 4, !tbaa !8
  %26 = getelementptr inbounds nuw i8, ptr %5, i64 28
  %27 = load float, ptr %26, align 4, !tbaa !8
  %28 = getelementptr inbounds nuw i8, ptr %2, i64 20
  store float %27, ptr %28, align 4, !tbaa !8
  %29 = getelementptr inbounds nuw i8, ptr %5, i64 32
  %30 = load float, ptr %29, align 4, !tbaa !8
  %31 = getelementptr inbounds nuw i8, ptr %2, i64 24
  store float %30, ptr %31, align 4, !tbaa !8
  %32 = getelementptr inbounds nuw i8, ptr %5, i64 36
  %33 = load float, ptr %32, align 4, !tbaa !8
  %34 = getelementptr inbounds nuw i8, ptr %2, i64 28
  store float %33, ptr %34, align 4, !tbaa !8
  %35 = getelementptr inbounds nuw i8, ptr %5, i64 40
  %36 = load float, ptr %35, align 4, !tbaa !8
  %37 = getelementptr inbounds nuw i8, ptr %2, i64 32
  store float %36, ptr %37, align 4, !tbaa !8
  br label %51

38:                                               ; preds = %9, %3
  %39 = landingpad { ptr, i32 }
          cleanup
          catch ptr @_ZTISt9exception
  br label %.body

.body:                                            ; preds = %10, %38
  %eh.lpad-body = phi { ptr, i32 } [ %39, %38 ], [ %11, %10 ]
  %40 = extractvalue { ptr, i32 } %eh.lpad-body, 1
  %41 = tail call i32 @llvm.eh.typeid.for.p0(ptr nonnull @_ZTISt9exception) #24
  %42 = icmp eq i32 %40, %41
  br i1 %42, label %43, label %52

43:                                               ; preds = %.body
  %44 = extractvalue { ptr, i32 } %eh.lpad-body, 0
  %45 = tail call ptr @__cxa_begin_catch(ptr %44) #24
  %46 = load ptr, ptr %45, align 8, !tbaa !22
  %47 = getelementptr inbounds nuw i8, ptr %46, i64 16
  %48 = load ptr, ptr %47, align 8
  %49 = tail call noundef ptr %48(ptr noundef nonnull align 8 dereferenceable(8) %45) #24
  %50 = tail call ptr @strncpy(ptr noundef nonnull dereferenceable(1) @_ZN12_GLOBAL__N_112errorMessageE, ptr noundef nonnull dereferenceable(1) %49, i64 noundef 1023) #24
  store i8 0, ptr getelementptr inbounds nuw (i8, ptr @_ZN12_GLOBAL__N_112errorMessageE, i64 1023), align 1, !tbaa !15
  tail call void @__cxa_end_catch()
  br label %51

51:                                               ; preds = %43, %_ZNK7Imf_3_46Header14typedAttributeINS_14TypedAttributeIN9Imath_3_28Matrix33IfEEEEEERKT_PKc.exit
  %.0 = phi i32 [ 1, %_ZNK7Imf_3_46Header14typedAttributeINS_14TypedAttributeIN9Imath_3_28Matrix33IfEEEEEERKT_PKc.exit ], [ 0, %43 ]
  ret i32 %.0

52:                                               ; preds = %.body
  resume { ptr, i32 } %eh.lpad-body
}